; Function Attrs: nounwind uwtable
define dso_local void @ss_report_location(ptr noundef readonly captures(none) %0, i32 noundef %1) local_unnamed_addr #1 {
  %3 = and i32 %1, 15
  %4 = icmp eq i32 %3, 0
  br i1 %4, label %5, label %47

5:                                                ; preds = %2
  %6 = load ptr, ptr @MainLWLockArray, align 8
  %7 = getelementptr inbounds nuw i8, ptr %6, i64 3072
  %8 = tail call zeroext i1 @LWLockConditionalAcquire(ptr noundef nonnull %7, i32 noundef 0) #4
  br i1 %8, label %9, label %47

9:                                                ; preds = %5
  %.sroa.0.0.copyload = load i64, ptr %0, align 8
  %.sroa.2.0..sroa_idx = getelementptr inbounds nuw i8, ptr %0, i64 8
  %.sroa.2.0.copyload = load i32, ptr %.sroa.2.0..sroa_idx, align 8
  %.sroa.026.sroa.0.0.extract.trunc.i = trunc i64 %.sroa.0.0.copyload to i32
  %.sroa.026.sroa.3.0.extract.shift.i = lshr i64 %.sroa.0.0.copyload, 32
  %.sroa.026.sroa.3.0.extract.trunc.i = trunc nuw i64 %.sroa.026.sroa.3.0.extract.shift.i to i32
  %10 = load ptr, ptr @scan_locations, align 8
  %11 = load ptr, ptr %10, align 8
  br label %12

12:                                               ; preds = %.thread.i, %9
  %.029.i = phi ptr [ %11, %9 ], [ %25, %.thread.i ]
  %13 = getelementptr inbounds nuw i8, ptr %.029.i, i64 16
  %14 = getelementptr inbounds nuw i8, ptr %.029.i, i64 24
  %15 = load i32, ptr %14, align 8
  %16 = icmp eq i32 %15, %.sroa.2.0.copyload
  br i1 %16, label %17, label %.thread.i

17:                                               ; preds = %12
  %18 = getelementptr inbounds nuw i8, ptr %.029.i, i64 20
  %19 = load i32, ptr %18, align 4
  %20 = icmp eq i32 %19, %.sroa.026.sroa.3.0.extract.trunc.i
  br i1 %20, label %21, label %.thread.i

21:                                               ; preds = %17
  %22 = load i32, ptr %13, align 8
  %23 = icmp eq i32 %22, %.sroa.026.sroa.0.0.extract.trunc.i
  br i1 %23, label %.sink.split.i, label %.thread.i

.thread.i:                                        ; preds = %21, %17, %12
  %24 = getelementptr inbounds nuw i8, ptr %.029.i, i64 8
  %25 = load ptr, ptr %24, align 8
  %26 = icmp eq ptr %25, null
  br i1 %26, label %27, label %12

27:                                               ; preds = %.thread.i
  %28 = getelementptr inbounds nuw i8, ptr %.029.i, i64 24
  store i64 %.sroa.0.0.copyload, ptr %13, align 8
  store i32 %.sroa.2.0.copyload, ptr %28, align 8
  br label %.sink.split.i

.sink.split.i:                                    ; preds = %21, %27
  %29 = getelementptr inbounds nuw i8, ptr %.029.i, i64 28
  store i32 %1, ptr %29, align 4
  %30 = load ptr, ptr %10, align 8
  %.not.i = icmp eq ptr %.029.i, %30
  br i1 %.not.i, label %ss_search.exit, label %31

31:                                               ; preds = %.sink.split.i
  %32 = getelementptr inbounds nuw i8, ptr %10, i64 8
  %33 = load ptr, ptr %32, align 8
  %34 = icmp eq ptr %.029.i, %33
  %.pre.i = load ptr, ptr %.029.i, align 8
  br i1 %34, label %35, label %36

35:                                               ; preds = %31
  store ptr %.pre.i, ptr %32, align 8
  br label %36

36:                                               ; preds = %35, %31
  %37 = getelementptr inbounds nuw i8, ptr %.029.i, i64 8
  %38 = load ptr, ptr %37, align 8
  %39 = getelementptr inbounds nuw i8, ptr %.pre.i, i64 8
  store ptr %38, ptr %39, align 8
  %.not33.i = icmp eq ptr %38, null
  br i1 %.not33.i, label %42, label %40

40:                                               ; preds = %36
  %41 = load ptr, ptr %.029.i, align 8
  store ptr %41, ptr %38, align 8
  br label %42

42:                                               ; preds = %40, %36
  store ptr null, ptr %.029.i, align 8
  %43 = load ptr, ptr @scan_locations, align 8
  %44 = load ptr, ptr %43, align 8
  store ptr %44, ptr %37, align 8
  store ptr %.029.i, ptr %44, align 8
  store ptr %.029.i, ptr %43, align 8
  br label %ss_search.exit

ss_search.exit:                                   ; preds = %.sink.split.i, %42
  %45 = load ptr, ptr @MainLWLockArray, align 8
  %46 = getelementptr inbounds nuw i8, ptr %45, i64 3072
  tail call void @LWLockRelease(ptr noundef nonnull %46) #4
  br label %47

47:                                               ; preds = %5, %ss_search.exit, %2
  ret void
}